; ModuleID = '30/2130.c'
source_filename = "30/2130.c"
target datalayout = "e-m:e-p270:32:32-p271:32:32-p272:64:64-i64:64-f80:128-n8:16:32:64-S128"
target triple = "x86_64-pc-linux-gnu"

@.str = private unnamed_addr constant [3 x i8] c"%d\00", align 1

; Function Attrs: noinline nounwind uwtable
define dso_local i32 @main() #0 {
  %1 = alloca i32, align 4
  %2 = alloca i32, align 4
  %3 = alloca i32, align 4
  store i32 0, i32* %1, align 4
  store i32 0, i32* %3, align 4
  %4 = call i32 (i8*, ...) @__isoc99_scanf(i8* getelementptr inbounds ([3 x i8], [3 x i8]* @.str, i64 0, i64 0), i32* %2)
  br label %5

5:                                                ; preds = %28, %0
  %6 = load i32, i32* %2, align 4
  %7 = icmp sgt i32 %6, 0
  br i1 %7, label %8, label %31

8:                                                ; preds = %5
  %9 = load i32, i32* %2, align 4
  %10 = srem i32 %9, 7
  %11 = icmp ne i32 %10, 0
  br i1 %11, label %12, label %28

12:                                               ; preds = %8
  %13 = load i32, i32* %2, align 4
  %14 = srem i32 %13, 10
  %15 = icmp ne i32 %14, 7
  br i1 %15, label %16, label %28

16:                                               ; preds = %12
  %17 = load i32, i32* %2, align 4
  %18 = load i32, i32* %2, align 4
  %19 = srem i32 %18, 10
  %20 = sub nsw i32 %17, %19
  %21 = icmp ne i32 %20, 70
  br i1 %21, label %22, label %28

22:                                               ; preds = %16
  %23 = load i32, i32* %3, align 4
  %24 = load i32, i32* %2, align 4
  %25 = load i32, i32* %2, align 4
  %26 = mul nsw i32 %24, %25
  %27 = add nsw i32 %23, %26
  store i32 %27, i32* %3, align 4
  br label %28

28:                                               ; preds = %22, %16, %12, %8
  %29 = load i32, i32* %2, align 4
  %30 = sub nsw i32 %29, 1
  store i32 %30, i32* %2, align 4
  br label %5

31:                                               ; preds = %5
  %32 = load i32, i32* %3, align 4
  %33 = call i32 (i8*, ...) @printf(i8* getelementptr inbounds ([3 x i8], [3 x i8]* @.str, i64 0, i64 0), i32 %32)
  ret i32 0
}

declare dso_local i32 @__isoc99_scanf(i8*, ...) #1

declare dso_local i32 @printf(i8*, ...) #1


!llvm.module.flags = !{!0}
!llvm.ident = !{!1}

!0 = !{i32 1, !"wchar_size", i32 4}
!1 = !{!"clang version 10.0.0-4ubuntu1 "}
